target datalayout = "e-m:e-p270:32:32-p271:32:32-p272:64:64-i64:64-i128:128-f80:128-n8:16:32:64-S128"
target triple = "x86_64-pc-linux-gnu"

%struct.SDL_HIDAPI_Device = type { ptr, ptr, ptr, ptr, i16, i16, i16, ptr, %struct.SDL_GUID, i32, i32, i32, i32, i16, i16, i8, i32, i32, i32, ptr, ptr, ptr, ptr, %struct.SDL_AtomicInt, i32, ptr, i8, i8, i8, ptr, i32, ptr, ptr }
%struct.SDL_GUID = type { [16 x i8] }
%struct.SDL_AtomicInt = type { i32 }
%struct.SDL_DriverPS4_Context = type { ptr, ptr, i8, i8, i8, i8, i8, i8, i8, i8, i32, i8, i8, i8, i8, i8, i8, i8, i8, [6 x %struct.IMUCalibrationData], i64, i32, i8, i8, i8, i8, i8, i8, i16, i16, i16, i16, i64, i16, i16, %struct.PS4StatePacket_t }
%struct.IMUCalibrationData = type { i16, float }
%struct.PS4StatePacket_t = type { i8, i8, i8, i8, [3 x i8], i8, i8, [2 x i8], [1 x i8], [2 x i8], [2 x i8], [2 x i8], [2 x i8], [2 x i8], [2 x i8], [5 x i8], i8, [4 x i8], i8, [3 x i8], i8, [3 x i8] }
%struct.SDL_Joystick = type { i32, ptr, ptr, ptr, %struct.SDL_GUID, i16, i64, i8, i8, i32, ptr, i32, ptr, i32, ptr, i32, ptr, i32, ptr, i32, i32, ptr, i16, i16, i64, i64, i16, i16, i64, i64, i8, i8, i8, i64, i8, i32, i32, i32, i8, i32, ptr, i32, ptr, [3 x [3 x float]], i64, ptr, ptr, i32, i32, ptr }

@.str.6 = private unnamed_addr constant [40 x i8] c"SDL_JOYSTICK_HIDAPI_PS4_REPORT_INTERVAL\00", align 1
@.str.7 = private unnamed_addr constant [30 x i8] c"SDL_JOYSTICK_ENHANCED_REPORTS\00", align 1

; Function Attrs: nounwind uwtable
define internal zeroext i1 @HIDAPI_DriverPS4_OpenJoystick(ptr noundef %0, ptr noundef %1) #0 {
  %3 = alloca ptr, align 8
  %4 = alloca ptr, align 8
  %5 = alloca ptr, align 8
  store ptr %0, ptr %3, align 8
  store ptr %1, ptr %4, align 8
  call void @llvm.lifetime.start.p0(i64 8, ptr %5) #6
  %6 = load ptr, ptr %3, align 8
  %7 = getelementptr inbounds nuw %struct.SDL_HIDAPI_Device, ptr %6, i32 0, i32 20
  %8 = load ptr, ptr %7, align 8
  store ptr %8, ptr %5, align 8
  call void @SDL_AssertJoysticksLocked()
  %9 = load ptr, ptr %4, align 8
  %10 = load ptr, ptr %5, align 8
  %11 = getelementptr inbounds nuw %struct.SDL_DriverPS4_Context, ptr %10, i32 0, i32 1
  store ptr %9, ptr %11, align 8
  %12 = call i64 @SDL_GetTicks_REAL()
  %13 = load ptr, ptr %5, align 8
  %14 = getelementptr inbounds nuw %struct.SDL_DriverPS4_Context, ptr %13, i32 0, i32 20
  store i64 %12, ptr %14, align 8
  %15 = load ptr, ptr %5, align 8
  %16 = getelementptr inbounds nuw %struct.SDL_DriverPS4_Context, ptr %15, i32 0, i32 15
  store i8 0, ptr %16, align 8
  %17 = load ptr, ptr %5, align 8
  %18 = getelementptr inbounds nuw %struct.SDL_DriverPS4_Context, ptr %17, i32 0, i32 16
  store i8 0, ptr %18, align 1
  %19 = load ptr, ptr %5, align 8
  %20 = getelementptr inbounds nuw %struct.SDL_DriverPS4_Context, ptr %19, i32 0, i32 22
  store i8 0, ptr %20, align 4
  %21 = load ptr, ptr %5, align 8
  %22 = getelementptr inbounds nuw %struct.SDL_DriverPS4_Context, ptr %21, i32 0, i32 23
  store i8 0, ptr %22, align 1
  %23 = load ptr, ptr %5, align 8
  %24 = getelementptr inbounds nuw %struct.SDL_DriverPS4_Context, ptr %23, i32 0, i32 24
  store i8 0, ptr %24, align 2
  %25 = load ptr, ptr %5, align 8
  %26 = getelementptr inbounds nuw %struct.SDL_DriverPS4_Context, ptr %25, i32 0, i32 35
  call void @llvm.memset.p0.i64(ptr align 4 %26, i8 0, i64 42, i1 false)
  %27 = load ptr, ptr %4, align 8
  %28 = call i32 @SDL_GetJoystickPlayerIndex_REAL(ptr noundef %27)
  %29 = load ptr, ptr %5, align 8
  %30 = getelementptr inbounds nuw %struct.SDL_DriverPS4_Context, ptr %29, i32 0, i32 21
  store i32 %28, ptr %30, align 8
  %31 = load ptr, ptr %4, align 8
  %32 = getelementptr inbounds nuw %struct.SDL_Joystick, ptr %31, i32 0, i32 15
  store i32 11, ptr %32, align 8
  %33 = load ptr, ptr %5, align 8
  %34 = getelementptr inbounds nuw %struct.SDL_DriverPS4_Context, ptr %33, i32 0, i32 8
  %35 = load i8, ptr %34, align 2, !range !5, !noundef !6
  %36 = trunc i8 %35 to i1
  br i1 %36, label %37, label %42

37:                                               ; preds = %2
  %38 = load ptr, ptr %4, align 8
  %39 = getelementptr inbounds nuw %struct.SDL_Joystick, ptr %38, i32 0, i32 15
  %40 = load i32, ptr %39, align 8
  %41 = add nsw i32 %40, 1
  store i32 %41, ptr %39, align 8
  br label %42

42:                                               ; preds = %37, %2
  %43 = load ptr, ptr %4, align 8
  %44 = getelementptr inbounds nuw %struct.SDL_Joystick, ptr %43, i32 0, i32 9
  store i32 6, ptr %44, align 4
  %45 = load ptr, ptr %4, align 8
  %46 = getelementptr inbounds nuw %struct.SDL_Joystick, ptr %45, i32 0, i32 13
  store i32 1, ptr %46, align 8
  %47 = load ptr, ptr %5, align 8
  %48 = call zeroext i1 @SDL_AddHintCallback_REAL(ptr noundef @.str.6, ptr noundef @SDL_PS4ReportIntervalHintChanged, ptr noundef %47)
  %49 = load ptr, ptr %5, align 8
  %50 = call zeroext i1 @SDL_AddHintCallback_REAL(ptr noundef @.str.7, ptr noundef @SDL_PS4EnhancedReportsChanged, ptr noundef %49)
  call void @llvm.lifetime.end.p0(i64 8, ptr %5) #6
  ret i1 true
}