; Function Attrs: nounwind uwtable
define internal noundef zeroext i1 @HIDAPI_DriverPS4_OpenJoystick(ptr noundef readonly captures(none) %0, ptr noundef %1) #0 {
  %3 = getelementptr inbounds nuw i8, ptr %0, i64 112
  %4 = load ptr, ptr %3, align 8
  tail call void @SDL_AssertJoysticksLocked() #9
  %5 = getelementptr inbounds nuw i8, ptr %4, i64 8
  store ptr %1, ptr %5, align 8
  %6 = tail call i64 @SDL_GetTicks_REAL() #9
  %7 = getelementptr inbounds nuw i8, ptr %4, i64 88
  store i64 %6, ptr %7, align 8
  %8 = getelementptr inbounds nuw i8, ptr %4, i64 32
  store i8 0, ptr %8, align 8
  %9 = getelementptr inbounds nuw i8, ptr %4, i64 33
  store i8 0, ptr %9, align 1
  %10 = getelementptr inbounds nuw i8, ptr %4, i64 100
  store i8 0, ptr %10, align 4
  %11 = getelementptr inbounds nuw i8, ptr %4, i64 101
  store i8 0, ptr %11, align 1
  %12 = getelementptr inbounds nuw i8, ptr %4, i64 102
  store i8 0, ptr %12, align 2
  %13 = getelementptr inbounds nuw i8, ptr %4, i64 132
  tail call void @llvm.memset.p0.i64(ptr noundef nonnull align 4 dereferenceable(42) %13, i8 0, i64 42, i1 false)
  %14 = tail call i32 @SDL_GetJoystickPlayerIndex_REAL(ptr noundef %1) #9
  %15 = getelementptr inbounds nuw i8, ptr %4, i64 96
  store i32 %14, ptr %15, align 8
  %16 = getelementptr inbounds nuw i8, ptr %1, i64 112
  store i32 11, ptr %16, align 8
  %17 = getelementptr inbounds nuw i8, ptr %4, i64 22
  %18 = load i8, ptr %17, align 2, !range !5, !noundef !6
  %19 = trunc nuw i8 %18 to i1
  %spec.store.select = select i1 %19, i32 12, i32 11
  store i32 %spec.store.select, ptr %16, align 8
  %20 = getelementptr inbounds nuw i8, ptr %1, i64 68
  store i32 6, ptr %20, align 4
  %21 = getelementptr inbounds nuw i8, ptr %1, i64 96
  store i32 1, ptr %21, align 8
  %22 = tail call zeroext i1 @SDL_AddHintCallback_REAL(ptr noundef nonnull @.str.6, ptr noundef nonnull @SDL_PS4ReportIntervalHintChanged, ptr noundef %4) #9
  %23 = tail call zeroext i1 @SDL_AddHintCallback_REAL(ptr noundef nonnull @.str.7, ptr noundef nonnull @SDL_PS4EnhancedReportsChanged, ptr noundef %4) #9
  ret i1 true
}